target datalayout = "e-m:e-p270:32:32-p271:32:32-p272:64:64-i64:64-i128:128-f80:128-n8:16:32:64-S128"
target triple = "x86_64-pc-linux-gnu"

%struct.SDL_Surface = type { i32, i32, i32, i32, i32, ptr, i32, ptr, i32, i32, ptr, i32, ptr, i32, ptr, i32, %struct.SDL_Rect, %struct.SDL_BlitMap }
%struct.SDL_Rect = type { i32, i32, i32, i32 }
%struct.SDL_BlitMap = type { i32, ptr, ptr, %struct.SDL_BlitInfo, i32, i32 }
%struct.SDL_BlitInfo = type { ptr, ptr, i32, i32, i32, i32, ptr, ptr, i32, i32, i32, i32, ptr, ptr, ptr, ptr, ptr, ptr, i32, i32, i8, i8, i8, i8 }

@SDL_surface_magic = internal global i8 0, align 1
@.str = private unnamed_addr constant [26 x i8] c"Parameter '%s' is invalid\00", align 1
@.str.5 = private unnamed_addr constant [8 x i8] c"surface\00", align 1

; Function Attrs: nounwind uwtable
define hidden zeroext i1 @SDL_SurfaceHasRLE_REAL(ptr noundef %0) #0 {
  %2 = alloca i1, align 1
  %3 = alloca ptr, align 8
  store ptr %0, ptr %3, align 8
  %4 = load ptr, ptr %3, align 8
  %5 = call zeroext i1 @SDL_SurfaceValid(ptr noundef %4)
  br i1 %5, label %7, label %6

6:                                                ; preds = %1
  store i1 false, ptr %2, align 1
  br label %17

7:                                                ; preds = %1
  %8 = load ptr, ptr %3, align 8
  %9 = getelementptr inbounds nuw %struct.SDL_Surface, ptr %8, i32 0, i32 17
  %10 = getelementptr inbounds nuw %struct.SDL_BlitMap, ptr %9, i32 0, i32 3
  %11 = getelementptr inbounds nuw %struct.SDL_BlitInfo, ptr %10, i32 0, i32 18
  %12 = load i32, ptr %11, align 8
  %13 = and i32 %12, 4096
  %14 = icmp ne i32 %13, 0
  br i1 %14, label %16, label %15

15:                                               ; preds = %7
  store i1 false, ptr %2, align 1
  br label %17

16:                                               ; preds = %7
  store i1 true, ptr %2, align 1
  br label %17

17:                                               ; preds = %16, %15, %6
  %18 = load i1, ptr %2, align 1
  ret i1 %18
}

; Function Attrs: nounwind uwtable
define hidden void @SDL_UpdateSurfaceLockFlag(ptr noundef %0) #0 {
  %2 = alloca ptr, align 8
  store ptr %0, ptr %2, align 8
  %3 = load ptr, ptr %2, align 8
  %4 = call zeroext i1 @SDL_SurfaceHasRLE_REAL(ptr noundef %3)
  br i1 %4, label %5, label %10

5:                                                ; preds = %1
  %6 = load ptr, ptr %2, align 8
  %7 = getelementptr inbounds nuw %struct.SDL_Surface, ptr %6, i32 0, i32 0
  %8 = load i32, ptr %7, align 8
  %9 = or i32 %8, 2
  store i32 %9, ptr %7, align 8
  br label %15

10:                                               ; preds = %1
  %11 = load ptr, ptr %2, align 8
  %12 = getelementptr inbounds nuw %struct.SDL_Surface, ptr %11, i32 0, i32 0
  %13 = load i32, ptr %12, align 8
  %14 = and i32 %13, -3
  store i32 %14, ptr %12, align 8
  br label %15

15:                                               ; preds = %10, %5
  ret void
}

; Function Attrs: nounwind uwtable
define hidden zeroext i1 @SDL_SurfaceValid(ptr noundef %0) #0 {
  %2 = alloca ptr, align 8
  store ptr %0, ptr %2, align 8
  %3 = load ptr, ptr %2, align 8
  %4 = icmp ne ptr %3, null
  br i1 %4, label %5, label %10

5:                                                ; preds = %1
  %6 = load ptr, ptr %2, align 8
  %7 = getelementptr inbounds nuw %struct.SDL_Surface, ptr %6, i32 0, i32 7
  %8 = load ptr, ptr %7, align 8
  %9 = icmp eq ptr %8, @SDL_surface_magic
  br label %10

10:                                               ; preds = %5, %1
  %11 = phi i1 [ false, %1 ], [ %9, %5 ]
  ret i1 %11
}

; Function Attrs: nounwind uwtable
define hidden zeroext i1 @SDL_SetSurfaceRLE_REAL(ptr noundef %0, i1 noundef zeroext %1) #0 {
  %3 = alloca i1, align 1
  %4 = alloca ptr, align 8
  %5 = alloca i8, align 1
  %6 = alloca i32, align 4
  %7 = alloca i32, align 4
  store ptr %0, ptr %4, align 8
  %8 = zext i1 %1 to i8
  store i8 %8, ptr %5, align 1
  call void @llvm.lifetime.start.p0(i64 4, ptr %6) #8
  %9 = load ptr, ptr %4, align 8
  %10 = call zeroext i1 @SDL_SurfaceValid(ptr noundef %9)
  br i1 %10, label %13, label %11

11:                                               ; preds = %2
  %12 = call zeroext i1 (ptr, ...) @SDL_SetError_REAL(ptr noundef @.str, ptr noundef @.str.5)
  store i1 %12, ptr %3, align 1
  store i32 1, ptr %7, align 4
  br label %48

13:                                               ; preds = %2
  %14 = load ptr, ptr %4, align 8
  %15 = getelementptr inbounds nuw %struct.SDL_Surface, ptr %14, i32 0, i32 17
  %16 = getelementptr inbounds nuw %struct.SDL_BlitMap, ptr %15, i32 0, i32 3
  %17 = getelementptr inbounds nuw %struct.SDL_BlitInfo, ptr %16, i32 0, i32 18
  %18 = load i32, ptr %17, align 8
  store i32 %18, ptr %6, align 4
  %19 = load i8, ptr %5, align 1, !range !3, !noundef !4
  %20 = trunc i8 %19 to i1
  br i1 %20, label %21, label %28

21:                                               ; preds = %13
  %22 = load ptr, ptr %4, align 8
  %23 = getelementptr inbounds nuw %struct.SDL_Surface, ptr %22, i32 0, i32 17
  %24 = getelementptr inbounds nuw %struct.SDL_BlitMap, ptr %23, i32 0, i32 3
  %25 = getelementptr inbounds nuw %struct.SDL_BlitInfo, ptr %24, i32 0, i32 18
  %26 = load i32, ptr %25, align 8
  %27 = or i32 %26, 4096
  store i32 %27, ptr %25, align 8
  br label %35

28:                                               ; preds = %13
  %29 = load ptr, ptr %4, align 8
  %30 = getelementptr inbounds nuw %struct.SDL_Surface, ptr %29, i32 0, i32 17
  %31 = getelementptr inbounds nuw %struct.SDL_BlitMap, ptr %30, i32 0, i32 3
  %32 = getelementptr inbounds nuw %struct.SDL_BlitInfo, ptr %31, i32 0, i32 18
  %33 = load i32, ptr %32, align 8
  %34 = and i32 %33, -4097
  store i32 %34, ptr %32, align 8
  br label %35

35:                                               ; preds = %28, %21
  %36 = load ptr, ptr %4, align 8
  %37 = getelementptr inbounds nuw %struct.SDL_Surface, ptr %36, i32 0, i32 17
  %38 = getelementptr inbounds nuw %struct.SDL_BlitMap, ptr %37, i32 0, i32 3
  %39 = getelementptr inbounds nuw %struct.SDL_BlitInfo, ptr %38, i32 0, i32 18
  %40 = load i32, ptr %39, align 8
  %41 = load i32, ptr %6, align 4
  %42 = icmp ne i32 %40, %41
  br i1 %42, label %43, label %46

43:                                               ; preds = %35
  %44 = load ptr, ptr %4, align 8
  %45 = getelementptr inbounds nuw %struct.SDL_Surface, ptr %44, i32 0, i32 17
  call void @SDL_InvalidateMap(ptr noundef %45)
  br label %46

46:                                               ; preds = %43, %35
  %47 = load ptr, ptr %4, align 8
  call void @SDL_UpdateSurfaceLockFlag(ptr noundef %47)
  store i1 true, ptr %3, align 1
  store i32 1, ptr %7, align 4
  br label %48

48:                                               ; preds = %46, %11
  call void @llvm.lifetime.end.p0(i64 4, ptr %6) #8
  %49 = load i1, ptr %3, align 1
  ret i1 %49
}