; Function Attrs: nounwind uwtable
define hidden zeroext i1 @SDL_SetSurfaceRLE_REAL(ptr noundef %0, i1 noundef zeroext %1) local_unnamed_addr #2 {
  %.not.i = icmp eq ptr %0, null
  br i1 %.not.i, label %SDL_SurfaceValid.exit.thread, label %SDL_SurfaceValid.exit

SDL_SurfaceValid.exit:                            ; preds = %2
  %3 = getelementptr inbounds nuw i8, ptr %0, i64 40
  %4 = load ptr, ptr %3, align 8
  %5 = icmp eq ptr %4, @SDL_surface_magic
  br i1 %5, label %7, label %SDL_SurfaceValid.exit.thread

SDL_SurfaceValid.exit.thread:                     ; preds = %2, %SDL_SurfaceValid.exit
  %6 = tail call zeroext i1 (ptr, ...) @SDL_SetError_REAL(ptr noundef nonnull @.str, ptr noundef nonnull @.str.5) #10
  br label %20

7:                                                ; preds = %SDL_SurfaceValid.exit
  %8 = getelementptr inbounds nuw i8, ptr %0, i64 256
  %9 = load i32, ptr %8, align 8
  %10 = and i32 %9, -4097
  %masksel = select i1 %1, i32 4096, i32 0
  %storemerge = or disjoint i32 %10, %masksel
  store i32 %storemerge, ptr %8, align 8
  %.not = icmp eq i32 %storemerge, %9
  br i1 %.not, label %SDL_SurfaceHasRLE_REAL.exit.i, label %SDL_SurfaceValid.exit.i.i

SDL_SurfaceValid.exit.i.i:                        ; preds = %7
  %11 = getelementptr inbounds nuw i8, ptr %0, i64 120
  tail call void @SDL_InvalidateMap(ptr noundef nonnull %11) #10
  %.pre = load ptr, ptr %3, align 8
  %12 = icmp eq ptr %.pre, @SDL_surface_magic
  br i1 %12, label %SDL_SurfaceHasRLE_REAL.exit.i, label %SDL_SurfaceHasRLE_REAL.exit.thread.i

SDL_SurfaceHasRLE_REAL.exit.i:                    ; preds = %7, %SDL_SurfaceValid.exit.i.i
  %13 = load i32, ptr %8, align 8
  %14 = and i32 %13, 4096
  %.not.i.not.i = icmp eq i32 %14, 0
  br i1 %.not.i.not.i, label %SDL_SurfaceHasRLE_REAL.exit.thread.i, label %15

15:                                               ; preds = %SDL_SurfaceHasRLE_REAL.exit.i
  %16 = load i32, ptr %0, align 8
  %17 = or i32 %16, 2
  br label %SDL_UpdateSurfaceLockFlag.exit

SDL_SurfaceHasRLE_REAL.exit.thread.i:             ; preds = %SDL_SurfaceHasRLE_REAL.exit.i, %SDL_SurfaceValid.exit.i.i
  %18 = load i32, ptr %0, align 8
  %19 = and i32 %18, -3
  br label %SDL_UpdateSurfaceLockFlag.exit

SDL_UpdateSurfaceLockFlag.exit:                   ; preds = %15, %SDL_SurfaceHasRLE_REAL.exit.thread.i
  %storemerge.i = phi i32 [ %19, %SDL_SurfaceHasRLE_REAL.exit.thread.i ], [ %17, %15 ]
  store i32 %storemerge.i, ptr %0, align 8
  br label %20

20:                                               ; preds = %SDL_UpdateSurfaceLockFlag.exit, %SDL_SurfaceValid.exit.thread
  %.0 = phi i1 [ true, %SDL_UpdateSurfaceLockFlag.exit ], [ %6, %SDL_SurfaceValid.exit.thread ]
  ret i1 %.0
}